; Function Attrs: mustprogress nofree norecurse nosync nounwind willreturn memory(argmem: read) uwtable
define hidden noundef double @_ZN2cv4epnp3dotEPKdS2_(ptr noundef nonnull readnone align 8 captures(none) dereferenceable(352) %0, ptr noundef readonly captures(none) %1, ptr noundef readonly captures(none) %2) local_unnamed_addr #15 align 2 {
  %4 = load double, ptr %1, align 8, !tbaa !32
  %5 = load double, ptr %2, align 8, !tbaa !32
  %6 = getelementptr inbounds nuw i8, ptr %1, i64 8
  %7 = load double, ptr %6, align 8, !tbaa !32
  %8 = getelementptr inbounds nuw i8, ptr %2, i64 8
  %9 = load double, ptr %8, align 8, !tbaa !32
  %10 = fmul double %7, %9
  %11 = tail call double @llvm.fmuladd.f64(double %4, double %5, double %10)
  %12 = getelementptr inbounds nuw i8, ptr %1, i64 16
  %13 = load double, ptr %12, align 8, !tbaa !32
  %14 = getelementptr inbounds nuw i8, ptr %2, i64 16
  %15 = load double, ptr %14, align 8, !tbaa !32
  %16 = tail call double @llvm.fmuladd.f64(double %13, double %15, double %11)
  ret double %16
}